target datalayout = "e-m:e-p270:32:32-p271:32:32-p272:64:64-i64:64-i128:128-f80:128-n8:16:32:64-S128"
target triple = "x86_64-pc-linux-gnu"

%struct.b2WorldId = type { i16, i16 }
%struct.b2JointId = type { i32, i16, i16 }
%struct.b2BodyId = type { i32, i16, i16 }
%struct.b2Vec2 = type { float, float }
%struct.b2Profile = type { float, float, float, float, float, float, float, float, float, float, float, float, float, float, float, float, float, float, float, float, float, float }
%class.Sample = type { ptr, ptr, ptr, ptr, i32, i32, %struct.b2BodyId, i32, %struct.b2WorldId, %struct.b2JointId, i32, i32, %struct.b2Profile, %struct.b2Profile }

@_ZL14b2_nullJointId = internal constant %struct.b2JointId zeroinitializer, align 4

; Function Attrs: mustprogress uwtable
define dso_local void @_ZN6Sample9MouseMoveE6b2Vec2(ptr noundef nonnull align 8 dereferenceable(248) %0, <2 x float> %1) unnamed_addr #10 align 2 {
  %3 = alloca %struct.b2Vec2, align 4
  %4 = alloca ptr, align 8
  %5 = alloca %struct.b2JointId, align 4
  %6 = alloca %struct.b2JointId, align 4
  %7 = alloca %struct.b2Vec2, align 4
  %8 = alloca %struct.b2BodyId, align 4
  %9 = alloca %struct.b2JointId, align 4
  %10 = alloca %struct.b2BodyId, align 4
  store <2 x float> %1, ptr %3, align 4
  store ptr %0, ptr %4, align 8, !tbaa !15
  %11 = load ptr, ptr %4, align 8
  %12 = getelementptr inbounds nuw %class.Sample, ptr %11, i32 0, i32 9
  call void @llvm.memcpy.p0.p0.i64(ptr align 4 %5, ptr align 8 %12, i64 8, i1 false), !tbaa.struct !40
  %13 = load i64, ptr %5, align 4
  %14 = call zeroext i1 @b2Joint_IsValid(i64 %13)
  %15 = zext i1 %14 to i32
  %16 = icmp eq i32 %15, 0
  br i1 %16, label %17, label %19

17:                                               ; preds = %2
  %18 = getelementptr inbounds nuw %class.Sample, ptr %11, i32 0, i32 9
  call void @llvm.memcpy.p0.p0.i64(ptr align 8 %18, ptr align 4 @_ZL14b2_nullJointId, i64 8, i1 false), !tbaa.struct !40
  br label %19

19:                                               ; preds = %17, %2
  %20 = getelementptr inbounds nuw %class.Sample, ptr %11, i32 0, i32 9
  %21 = getelementptr inbounds nuw %struct.b2JointId, ptr %20, i32 0, i32 0
  %22 = load i32, ptr %21, align 8, !tbaa !77
  %23 = icmp ne i32 %22, 0
  br i1 %23, label %24, label %32

24:                                               ; preds = %19
  %25 = getelementptr inbounds nuw %class.Sample, ptr %11, i32 0, i32 9
  call void @llvm.memcpy.p0.p0.i64(ptr align 4 %6, ptr align 8 %25, i64 8, i1 false), !tbaa.struct !40
  call void @llvm.memcpy.p0.p0.i64(ptr align 4 %7, ptr align 4 %3, i64 8, i1 false), !tbaa.struct !66
  %26 = load i64, ptr %6, align 4
  %27 = load <2 x float>, ptr %7, align 4
  call void @b2MouseJoint_SetTarget(i64 %26, <2 x float> %27)
  call void @llvm.lifetime.start.p0(i64 8, ptr %8) #19
  %28 = getelementptr inbounds nuw %class.Sample, ptr %11, i32 0, i32 9
  call void @llvm.memcpy.p0.p0.i64(ptr align 4 %9, ptr align 8 %28, i64 8, i1 false), !tbaa.struct !40
  %29 = load i64, ptr %9, align 4
  %30 = call i64 @b2Joint_GetBodyB(i64 %29)
  store i64 %30, ptr %8, align 4
  call void @llvm.memcpy.p0.p0.i64(ptr align 4 %10, ptr align 4 %8, i64 8, i1 false), !tbaa.struct !40
  %31 = load i64, ptr %10, align 4
  call void @b2Body_SetAwake(i64 %31, i1 noundef zeroext true)
  call void @llvm.lifetime.end.p0(i64 8, ptr %8) #19
  br label %32

32:                                               ; preds = %24, %19
  ret void
}