; Function Attrs: mustprogress uwtable
define dso_local void @_ZN6Sample9MouseMoveE6b2Vec2(ptr noundef nonnull align 8 captures(none) dereferenceable(248) %0, <2 x float> %1) unnamed_addr #5 align 2 {
  %3 = getelementptr inbounds nuw i8, ptr %0, i64 56
  %.sroa.05.0.copyload = load i64, ptr %3, align 8
  %4 = tail call zeroext i1 @b2Joint_IsValid(i64 %.sroa.05.0.copyload)
  br i1 %4, label %5, label %.thread

.thread:                                          ; preds = %2
  store i64 0, ptr %3, align 8
  br label %8

5:                                                ; preds = %2
  %.pr = load i32, ptr %3, align 8, !tbaa !61
  %.not = icmp eq i32 %.pr, 0
  br i1 %.not, label %8, label %6

6:                                                ; preds = %5
  %.sroa.04.0.copyload = load i64, ptr %3, align 8
  tail call void @b2MouseJoint_SetTarget(i64 %.sroa.04.0.copyload, <2 x float> %1)
  %.sroa.01.0.copyload = load i64, ptr %3, align 8
  %7 = tail call i64 @b2Joint_GetBodyB(i64 %.sroa.01.0.copyload)
  tail call void @b2Body_SetAwake(i64 %7, i1 noundef zeroext true)
  br label %8

8:                                                ; preds = %.thread, %6, %5
  ret void
}